(dp1
S'output'
p2
S"<type 'exceptions.UnboundLocalError'> local variable 'cadena' referenced before assignment"
p3
sS'layer'
p4
S'/home/jose/Escritorio/web2py/applications/welcome2/controllers/default.py'
p5
sS'code'
p6
S'# -*- coding: utf-8 -*-\n# this file is released under public domain and you can use without limitations\n\n#########################################################################\n## This is a sample controller\n## - index is the default action of any application\n## - user is required for authentication and authorization\n## - download is for downloading files uploaded in the db (does streaming)\n## - api is an example of Hypermedia API support and access control\n#########################################################################\nimport serial\nimport time\npuerto_Serie=serial.Serial(\'/dev/ttyACM1\', 9600,timeout=2)\npuerto_Serie.close()\npuerto_Serie.open()\nrecibido=""\nrecibido=puerto_Serie.readline()\nglobal valor\nvalor=""\n\ndef index():\n    """\n    example action using the internationalization operator T and flash\n    rendered by views/default/index.html or views/generic.html\n\n    if you need a simple wiki simply replace the two lines below with:\n    return auth.wiki()\n    """\n    response.flash = T("Welcome to web2py!")\n    return dict(message=T(\'Hello World\'))\n    \n\n  \ndef recibe_datos():\n\tprint "hola"\n\t#import pdb\n\t#pdb.set_trace()\n\n\ti=int(1)\n\t\n\t\n\t\n\tif valor==1:\n\t\tprint "hola 2"\n\t\tcadena=\'a\'\n\tif valor==0:\n\t\tcadena=\'b\'\n\tresultado=cadena\n\treturn resultado\n\tpuerto_Serie.write(cadena)\n\tpuerto_Serie.close()\n\t\n\t\n\n\ndef user():\n    """\n    exposes:\n    http://..../[app]/default/user/login\n    http://..../[app]/default/user/logout\n    http://..../[app]/default/user/register\n    http://..../[app]/default/user/profile\n    http://..../[app]/default/user/retrieve_password\n    http://..../[app]/default/user/change_password\n    http://..../[app]/default/user/manage_users (requires membership in\n    use @auth.requires_login()\n        @auth.requires_membership(\'group name\')\n        @auth.requires_permission(\'read\',\'table name\',record_id)\n    to decorate functions that need access control\n    """\n    return dict(form=auth())\n\n\n@cache.action()\ndef download():\n    """\n    allows downloading of uploaded files\n    http://..../[app]/default/download/[filename]\n    """\n    return response.download(request, db)\n\n\ndef call():\n    """\n    exposes services. for example:\n    http://..../[app]/default/call/jsonrpc\n    decorate with @services.jsonrpc the functions to expose\n    supports xml, json, xmlrpc, jsonrpc, amfrpc, rss, csv\n    """\n    return service()\n\n\n@auth.requires_login() \ndef api():\n    """\n    this is example of API with access control\n    WEB2PY provides Hypermedia API (Collection+JSON) Experimental\n    """\n    from gluon.contrib.hypermedia import Collection\n    rules = {\n        \'<tablename>\': {\'GET\':{},\'POST\':{},\'PUT\':{},\'DELETE\':{}},\n        }\n    return Collection(db).process(request,response,rules)\n\nresponse._vars=response._caller(recibe_datos)\n'
p7
sS'snapshot'
p8
(dp9
sS'traceback'
p10
S'Traceback (most recent call last):\n  File "/home/jose/Escritorio/web2py/gluon/restricted.py", line 224, in restricted\n    exec ccode in environment\n  File "/home/jose/Escritorio/web2py/applications/welcome2/controllers/default.py", line 105, in <module>\n  File "/home/jose/Escritorio/web2py/gluon/globals.py", line 392, in <lambda>\n    self._caller = lambda f: f()\n  File "/home/jose/Escritorio/web2py/applications/welcome2/controllers/default.py", line 48, in recibe_datos\n    resultado=cadena\nUnboundLocalError: local variable \'cadena\' referenced before assignment\n'
p11
s.