(dp1
S'output'
p2
S"<type 'exceptions.NameError'> name 'puerto_Serie' is not defined"
p3
sS'layer'
p4
S'C:\\Users\\joserra\\Desktop\\comunicaciones\\web2py\\applications\\welcome2\\controllers/default.py'
p5
sS'code'
p6
S'# -*- coding: utf-8 -*-\n# this file is released under public domain and you can use without limitations\n\n#########################################################################\n## This is a sample controller\n## - index is the default action of any application\n## - user is required for authentication and authorization\n## - download is for downloading files uploaded in the db (does streaming)\n## - api is an example of Hypermedia API support and access control\n#########################################################################\nimport serial\nimport time\nrecibido=""\nrecibido=puerto_Serie.readline()\npuerto_Serie=serial.Serial(\'COM7\', 9600)\npuerto_Serie.close()\npuerto_Serie.open()\ndef index():\n    """\n    example action using the internationalization operator T and flash\n    rendered by views/default/index.html or views/generic.html\n\n    if you need a simple wiki simply replace the two lines below with:\n    return auth.wiki()\n    """\n    response.flash = T("Welcome to web2py!")\n    return dict(message=T(\'Hello World\'))\n    \n\n  \ndef recibe_datos():\n\tprint "hola"\n\t#import pdb\n\t#pdb.set_trace()\n\n\ti=int(1)\n\t\n\t\n\t\n\tif valor==1:\n\t\tcadena=\'a\'\n\tif valor==0:\n\t\tcadena=\'b\'\n\tresultado=cadena\n\treturn resultado\n\tpuerto_Serie.write(cadena)\n\t\n\n\ndef user():\n    """\n    exposes:\n    http://..../[app]/default/user/login\n    http://..../[app]/default/user/logout\n    http://..../[app]/default/user/register\n    http://..../[app]/default/user/profile\n    http://..../[app]/default/user/retrieve_password\n    http://..../[app]/default/user/change_password\n    http://..../[app]/default/user/manage_users (requires membership in\n    use @auth.requires_login()\n        @auth.requires_membership(\'group name\')\n        @auth.requires_permission(\'read\',\'table name\',record_id)\n    to decorate functions that need access control\n    """\n    return dict(form=auth())\n\n\n@cache.action()\ndef download():\n    """\n    allows downloading of uploaded files\n    http://..../[app]/default/download/[filename]\n    """\n    return response.download(request, db)\n\n\ndef call():\n    """\n    exposes services. for example:\n    http://..../[app]/default/call/jsonrpc\n    decorate with @services.jsonrpc the functions to expose\n    supports xml, json, xmlrpc, jsonrpc, amfrpc, rss, csv\n    """\n    return service()\n\n\n@auth.requires_login() \ndef api():\n    """\n    this is example of API with access control\n    WEB2PY provides Hypermedia API (Collection+JSON) Experimental\n    """\n    from gluon.contrib.hypermedia import Collection\n    rules = {\n        \'<tablename>\': {\'GET\':{},\'POST\':{},\'PUT\':{},\'DELETE\':{}},\n        }\n    return Collection(db).process(request,response,rules)\n\nresponse._vars=response._caller(index)\n'
p7
sS'snapshot'
p8
(dp9
S'exception'
p10
(dp11
S'__hash__'
p12
S"<method-wrapper '__hash__' of exceptions.NameError object>"
p13
sS'__setattr__'
p14
S"<method-wrapper '__setattr__' of exceptions.NameError object>"
p15
sS'__reduce_ex__'
p16
S'<built-in method __reduce_ex__ of exceptions.NameError object>'
p17
sS'__getslice__'
p18
S"<method-wrapper '__getslice__' of exceptions.NameError object>"
p19
sS'__getitem__'
p20
S"<method-wrapper '__getitem__' of exceptions.NameError object>"
p21
sS'__setstate__'
p22
S'<built-in method __setstate__ of exceptions.NameError object>'
p23
sS'__reduce__'
p24
S'<built-in method __reduce__ of exceptions.NameError object>'
p25
sS'__str__'
p26
S"<method-wrapper '__str__' of exceptions.NameError object>"
p27
sS'__format__'
p28
S'<built-in method __format__ of exceptions.NameError object>'
p29
sS'__getattribute__'
p30
S"<method-wrapper '__getattribute__' of exceptions.NameError object>"
p31
sS'__class__'
p32
S"<type 'exceptions.NameError'>"
p33
sS'__unicode__'
p34
S'<built-in method __unicode__ of exceptions.NameError object>'
p35
sS'__delattr__'
p36
S"<method-wrapper '__delattr__' of exceptions.NameError object>"
p37
sS'__subclasshook__'
p38
S'<built-in method __subclasshook__ of type object>'
p39
sS'__repr__'
p40
S"<method-wrapper '__repr__' of exceptions.NameError object>"
p41
sS'__dict__'
p42
S'{}'
p43
sS'args'
p44
S'("name \'puerto_Serie\' is not defined",)'
p45
sS'__sizeof__'
p46
S'<built-in method __sizeof__ of exceptions.NameError object>'
p47
sS'__doc__'
p48
S"'Name not found globally.'"
p49
sS'__init__'
p50
S"<method-wrapper '__init__' of exceptions.NameError object>"
p51
sS'__new__'
p52
S'<built-in method __new__ of type object>'
p53
ssS'evalue'
p54
S"name 'puerto_Serie' is not defined"
p55
sS'request'
p56
cgluon.html
XML_unpickle
p57
(S's\xb9X\x00\x00<div><table><tr><td style="font-weight:bold;vertical-align:top;">ajax</td><td style="vertical-align:top;">:</td><td><div>False</div></td></tr><tr><td style="font-weight:bold;vertical-align:top;">application</td><td style="vertical-align:top;">:</td><td><div>welcome2</div></td></tr><tr><td style="font-weight:bold;vertical-align:top;">args</td><td style="vertical-align:top;">:</td><td><div><table></table></div></td></tr><tr><td style="font-weight:bold;vertical-align:top;">cid</td><td style="vertical-align:top;">:</td><td><div>None</div></td></tr><tr><td style="font-weight:bold;vertical-align:top;">client</td><td style="vertical-align:top;">:</td><td><div>127.0.0.1</div></td></tr><tr><td style="font-weight:bold;vertical-align:top;">controller</td><td style="vertical-align:top;">:</td><td><div>default</div></td></tr><tr><td style="font-weight:bold;vertical-align:top;">cookies</td><td style="vertical-align:top;">:</td><td><div><table><tr><td style="font-weight:bold;vertical-align:top;">session_id_welcome</td><td style="vertical-align:top;">:</td><td><div>127.0.0.1-3369f8d7-0f7d-415f-a7ce-d70d6e201047<table><tr><td style="font-weight:bold;vertical-align:top;">comment</td><td style="vertical-align:top;">:</td><td><div></div></td></tr><tr><td style="font-weight:bold;vertical-align:top;">domain</td><td style="vertical-align:top;">:</td><td><div></div></td></tr><tr><td style="font-weight:bold;vertical-align:top;">expires</td><td style="vertical-align:top;">:</td><td><div></div></td></tr><tr><td style="font-weight:bold;vertical-align:top;">httponly</td><td style="vertical-align:top;">:</td><td><div></div></td></tr><tr><td style="font-weight:bold;vertical-align:top;">max-age</td><td style="vertical-align:top;">:</td><td><div></div></td></tr><tr><td style="font-weight:bold;vertical-align:top;">path</td><td style="vertical-align:top;">:</td><td><div></div></td></tr><tr><td style="font-weight:bold;vertical-align:top;">secure</td><td style="vertical-align:top;">:</td><td><div></div></td></tr><tr><td style="font-weight:bold;vertical-align:top;">version</td><td style="vertical-align:top;">:</td><td><div></div></td></tr></table></div></td></tr><tr><td style="font-weight:bold;vertical-align:top;">session_id_welcome2</td><td style="vertical-align:top;">:</td><td><div>127.0.0.1-17110a8a-7595-473b-8330-617ca69f9419<table><tr><td style="font-weight:bold;vertical-align:top;">comment</td><td style="vertical-align:top;">:</td><td><div></div></td></tr><tr><td style="font-weight:bold;vertical-align:top;">domain</td><td style="vertical-align:top;">:</td><td><div></div></td></tr><tr><td style="font-weight:bold;vertical-align:top;">expires</td><td style="vertical-align:top;">:</td><td><div></div></td></tr><tr><td style="font-weight:bold;vertical-align:top;">httponly</td><td style="vertical-align:top;">:</td><td><div></div></td></tr><tr><td style="font-weight:bold;vertical-align:top;">max-age</td><td style="vertical-align:top;">:</td><td><div></div></td></tr><tr><td style="font-weight:bold;vertical-align:top;">path</td><td style="vertical-align:top;">:</td><td><div></div></td></tr><tr><td style="font-weight:bold;vertical-align:top;">secure</td><td style="vertical-align:top;">:</td><td><div></div></td></tr><tr><td style="font-weight:bold;vertical-align:top;">version</td><td style="vertical-align:top;">:</td><td><div></div></td></tr></table></div></td></tr></table></div></td></tr><tr><td style="font-weight:bold;vertical-align:top;">env</td><td style="vertical-align:top;">:</td><td><div><table><tr><td style="font-weight:bold;vertical-align:top;">HTTP_ACCEPT</td><td style="vertical-align:top;">:</td><td><div>text/html,application/xhtml+xml,application/xml;q=0.9,image/webp,*/*;q=0.8</div></td></tr><tr><td style="font-weight:bold;vertical-align:top;">HTTP_ACCEPT_ENCODING</td><td style="vertical-align:top;">:</td><td><div>gzip,deflate,sdch</div></td></tr><tr><td style="font-weight:bold;vertical-align:top;">HTTP_ACCEPT_LANGUAGE</td><td style="vertical-align:top;">:</td><td><div>es-ES,es;q=0.8</div></td></tr><tr><td style="font-weight:bold;vertical-align:top;">HTTP_CACHE_CONTROL</td><td style="vertical-align:top;">:</td><td><div>max-age=0</div></td></tr><tr><td style="font-weight:bold;vertical-align:top;">HTTP_CONNECTION</td><td style="vertical-align:top;">:</td><td><div>keep-alive</div></td></tr><tr><td style="font-weight:bold;vertical-align:top;">HTTP_COOKIE</td><td style="vertical-align:top;">:</td><td><div>session_id_welcome=127.0.0.1-3369f8d7-0f7d-415f-a7ce-d70d6e201047; session_id_welcome2=127.0.0.1-17110a8a-7595-473b-8330-617ca69f9419</div></td></tr><tr><td style="font-weight:bold;vertical-align:top;">HTTP_HOST</td><td style="vertical-align:top;">:</td><td><div>127.0.0.1:8000</div></td></tr><tr><td style="font-weight:bold;vertical-align:top;">HTTP_USER_AGENT</td><td style="vertical-align:top;">:</td><td><div>Mozilla/5.0 (Windows NT 6.2; WOW64) AppleWebKit/537.36 (KHTML, like Gecko) Chrome/38.0.2125.111 Safari/537.36</div></td></tr><tr><td style="font-weight:bold;vertical-align:top;">PATH_INFO</td><td style="vertical-align:top;">:</td><td><div>/welcome2/default/index</div></td></tr><tr><td style="font-weight:bold;vertical-align:top;">QUERY_STRING</td><td style="vertical-align:top;">:</td><td><div></div></td></tr><tr><td style="font-weight:bold;vertical-align:top;">REMOTE_ADDR</td><td style="vertical-align:top;">:</td><td><div>127.0.0.1</div></td></tr><tr><td style="font-weight:bold;vertical-align:top;">REMOTE_PORT</td><td style="vertical-align:top;">:</td><td><div>50944</div></td></tr><tr><td style="font-weight:bold;vertical-align:top;">REQUEST_METHOD</td><td style="vertical-align:top;">:</td><td><div>GET</div></td></tr><tr><td style="font-weight:bold;vertical-align:top;">SCRIPT_NAME</td><td style="vertical-align:top;">:</td><td><div></div></td></tr><tr><td style="font-weight:bold;vertical-align:top;">SERVER_NAME</td><td style="vertical-align:top;">:</td><td><div>Joserra</div></td></tr><tr><td style="font-weight:bold;vertical-align:top;">SERVER_PORT</td><td style="vertical-align:top;">:</td><td><div>8000</div></td></tr><tr><td style="font-weight:bold;vertical-align:top;">SERVER_PROTOCOL</td><td style="vertical-align:top;">:</td><td><div>HTTP/1.1</div></td></tr><tr><td style="font-weight:bold;vertical-align:top;">SERVER_SOFTWARE</td><td style="vertical-align:top;">:</td><td><div>Rocket 1.2.6</div></td></tr><tr><td style="font-weight:bold;vertical-align:top;">app_folders</td><td style="vertical-align:top;">:</td><td><div>set([&#x27;C:\\\\Users\\\\joserra\\\\Desktop\\\\comunicaciones\\\\web2py\\\\applications\\\\welcome2\\\\&#x27;, &#x27;C:\\\\Users\\\\joserra\\\\Desktop\\\\comunicaciones\\\\web2py\\\\applications\\\\welcome\\\\&#x27;])</div></td></tr><tr><td style="font-weight:bold;vertical-align:top;">applications_parent</td><td style="vertical-align:top;">:</td><td><div>C:\\Users\\joserra\\Desktop\\comunicaciones\\web2py</div></td></tr><tr><td style="font-weight:bold;vertical-align:top;">cmd_args</td><td style="vertical-align:top;">:</td><td><div><table></table></div></td></tr><tr><td style="font-weight:bold;vertical-align:top;">cmd_options</td><td style="vertical-align:top;">:</td><td><div>&lt;Values at 0x3a28a88: {&#x27;verbose&#x27;: False, &#x27;ip&#x27;: &#x27;127.0.0.1&#x27;, &#x27;debuglevel&#x27;: 30, &#x27;with_scheduler&#x27;: False, &#x27;ips&#x27;: [&#x27;172.23.122.154&#x27;, &#x27;fe80::ccb4:602a:9831:6b3a%12&#x27;, &#x27;fe80::242e:c79c:8482:e458%21&#x27;, &#x27;192.168.56.1&#x27;], &#x27;shutdown_timeout&#x27;: 5, &#x27;taskbar&#x27;: False, &#x27;with_coverage&#x27;: False, &#x27;scheduler_groups&#x27;: None, &#x27;port&#x27;: 8000, &#x27;maxthreads&#x27;: None, &#x27;softcron&#x27;: False, &#x27;server_name&#x27;: &#x27;Joserra&#x27;, &#x27;bpython&#x27;: False, &#x27;nogui&#x27;: False, &#x27;pid_filename&#x27;: &#x27;httpserver.pid&#x27;, &#x27;extcron&#x27;: False, &#x27;runcron&#x27;: False, &#x27;run_system_tests&#x27;: False, &#x27;test&#x27;: None, &#x27;folder&#x27;: &#x27;C:\\\\Users\\\\joserra\\\\Desktop\\\\comunicaciones\\\\web2py&#x27;, &#x27;config&#x27;: &#x27;&#x27;, &#x27;minthreads&#x27;: None, &#x27;shell&#x27;: None, &#x27;run&#x27;: &#x27;&#x27;, &#x27;log_filename&#x27;: &#x27;httpserver.log&#x27;, &#x27;profiler_dir&#x27;: None, &#x27;args&#x27;: [&#x27;&#x27;], &#x27;socket_timeout&#x27;: 5, &#x27;ssl_ca_certificate&#x27;: None, &#x27;scheduler&#x27;: None, &#x27;interfaces&#x27;: None, &#x27;ssl_private_key&#x27;: &#x27;&#x27;, &#x27;gae&#x27;: None, &#x27;password&#x27;: &#x27;&lt;ask&gt;&#x27;, &#x27;request_queue_size&#x27;: 5, &#x27;ssl_certificate&#x27;: &#x27;&#x27;, &#x27;cronjob&#x27;: False, &#x27;numthreads&#x27;: None, &#x27;quiet&#x27;: False, &#x27;import_models&#x27;: False, &#x27;timeout&#x27;: 10, &#x27;plain&#x27;: False, &#x27;nobanner&#x27;: False}&gt;</div></td></tr><tr><td style="font-weight:bold;vertical-align:top;">db_sessions</td><td style="vertical-align:top;">:</td><td><div>set([])</div></td></tr><tr><td style="font-weight:bold;vertical-align:top;">debugging</td><td style="vertical-align:top;">:</td><td><div>False</div></td></tr><tr><td style="font-weight:bold;vertical-align:top;">gluon_parent</td><td style="vertical-align:top;">:</td><td><div>C:\\Users\\joserra\\Desktop\\comunicaciones\\web2py</div></td></tr><tr><td style="font-weight:bold;vertical-align:top;">http_accept</td><td style="vertical-align:top;">:</td><td><div>text/html,application/xhtml+xml,application/xml;q=0.9,image/webp,*/*;q=0.8</div></td></tr><tr><td style="font-weight:bold;vertical-align:top;">http_accept_encoding</td><td style="vertical-align:top;">:</td><td><div>gzip,deflate,sdch</div></td></tr><tr><td style="font-weight:bold;vertical-align:top;">http_accept_language</td><td style="vertical-align:top;">:</td><td><div>es-ES,es;q=0.8</div></td></tr><tr><td style="font-weight:bold;vertical-align:top;">http_cache_control</td><td style="vertical-align:top;">:</td><td><div>max-age=0</div></td></tr><tr><td style="font-weight:bold;vertical-align:top;">http_connection</td><td style="vertical-align:top;">:</td><td><div>keep-alive</div></td></tr><tr><td style="font-weight:bold;vertical-align:top;">http_cookie</td><td style="vertical-align:top;">:</td><td><div>session_id_welcome=127.0.0.1-3369f8d7-0f7d-415f-a7ce-d70d6e201047; session_id_welcome2=127.0.0.1-17110a8a-7595-473b-8330-617ca69f9419</div></td></tr><tr><td style="font-weight:bold;vertical-align:top;">http_host</td><td style="vertical-align:top;">:</td><td><div>127.0.0.1:8000</div></td></tr><tr><td style="font-weight:bold;vertical-align:top;">http_user_agent</td><td style="vertical-align:top;">:</td><td><div>Mozilla/5.0 (Windows NT 6.2; WOW64) AppleWebKit/537.36 (KHTML, like Gecko) Chrome/38.0.2125.111 Safari/537.36</div></td></tr><tr><td style="font-weight:bold;vertical-align:top;">is_jython</td><td style="vertical-align:top;">:</td><td><div>False</div></td></tr><tr><td style="font-weight:bold;vertical-align:top;">is_pypy</td><td style="vertical-align:top;">:</td><td><div>False</div></td></tr><tr><td style="font-weight:bold;vertical-align:top;">is_source</td><td style="vertical-align:top;">:</td><td><div>True</div></td></tr><tr><td style="font-weight:bold;vertical-align:top;">local_hosts</td><td style="vertical-align:top;">:</td><td><div><table><tr><td><div>Joserra</div></td></tr><tr><td><div>fe80::242e:c79c:8482:e458%21</div></td></tr><tr><td><div>::ffff:127.0.0.1</div></td></tr><tr><td><div>::1</div></td></tr><tr><td><div>fe80::ccb4:602a:9831:6b3a%12</div></td></tr><tr><td><div>172.23.122.154</div></td></tr><tr><td><div>127.0.0.1</div></td></tr><tr><td><div>192.168.56.1</div></td></tr></table></div></td></tr><tr><td style="font-weight:bold;vertical-align:top;">path_info</td><td style="vertical-align:top;">:</td><td><div>/welcome2/default/index</div></td></tr><tr><td style="font-weight:bold;vertical-align:top;">query_string</td><td style="vertical-align:top;">:</td><td><div></div></td></tr><tr><td style="font-weight:bold;vertical-align:top;">remote_addr</td><td style="vertical-align:top;">:</td><td><div>127.0.0.1</div></td></tr><tr><td style="font-weight:bold;vertical-align:top;">remote_port</td><td style="vertical-align:top;">:</td><td><div>50944</div></td></tr><tr><td style="font-weight:bold;vertical-align:top;">request_method</td><td style="vertical-align:top;">:</td><td><div>GET</div></td></tr><tr><td style="font-weight:bold;vertical-align:top;">request_uri</td><td style="vertical-align:top;">:</td><td><div>/welcome2/default/index</div></td></tr><tr><td style="font-weight:bold;vertical-align:top;">script_name</td><td style="vertical-align:top;">:</td><td><div></div></td></tr><tr><td style="font-weight:bold;vertical-align:top;">server_name</td><td style="vertical-align:top;">:</td><td><div>Joserra</div></td></tr><tr><td style="font-weight:bold;vertical-align:top;">server_port</td><td style="vertical-align:top;">:</td><td><div>8000</div></td></tr><tr><td style="font-weight:bold;vertical-align:top;">server_protocol</td><td style="vertical-align:top;">:</td><td><div>HTTP/1.1</div></td></tr><tr><td style="font-weight:bold;vertical-align:top;">server_software</td><td style="vertical-align:top;">:</td><td><div>Rocket 1.2.6</div></td></tr><tr><td style="font-weight:bold;vertical-align:top;">web2py_path</td><td style="vertical-align:top;">:</td><td><div>C:\\Users\\joserra\\Desktop\\comunicaciones\\web2py</div></td></tr><tr><td style="font-weight:bold;vertical-align:top;">web2py_version</td><td style="vertical-align:top;">:</td><td><div>2.9.11-stable+timestamp.2014.09.15.23.35.11</div></td></tr><tr><td style="font-weight:bold;vertical-align:top;">wsgi.errors</td><td style="vertical-align:top;">:</td><td><div>&lt;open file &#x27;&lt;stderr&gt;&#x27;, mode &#x27;w&#x27; at 0x0000000001CFB150&gt;</div></td></tr><tr><td style="font-weight:bold;vertical-align:top;">wsgi.file_wrapper</td><td style="vertical-align:top;">:</td><td><div>&lt;class wsgiref.util.FileWrapper at 0x0000000003544768&gt;</div></td></tr><tr><td style="font-weight:bold;vertical-align:top;">wsgi.input</td><td style="vertical-align:top;">:</td><td><div>&lt;socket._fileobject object at 0x0000000003D5F570&gt;</div></td></tr><tr><td style="font-weight:bold;vertical-align:top;">wsgi.multiprocess</td><td style="vertical-align:top;">:</td><td><div>False</div></td></tr><tr><td style="font-weight:bold;vertical-align:top;">wsgi.multithread</td><td style="vertical-align:top;">:</td><td><div>True</div></td></tr><tr><td style="font-weight:bold;vertical-align:top;">wsgi.run_once</td><td style="vertical-align:top;">:</td><td><div>False</div></td></tr><tr><td style="font-weight:bold;vertical-align:top;">wsgi.url_scheme</td><td style="vertical-align:top;">:</td><td><div>http</div></td></tr><tr><td style="font-weight:bold;vertical-align:top;">wsgi.version</td><td style="vertical-align:top;">:</td><td><div><table><tr><td><div>1</div></td></tr><tr><td><div>0</div></td></tr></table></div></td></tr><tr><td style="font-weight:bold;vertical-align:top;">wsgi_errors</td><td style="vertical-align:top;">:</td><td><div>&lt;open file &#x27;&lt;stderr&gt;&#x27;, mode &#x27;w&#x27; at 0x0000000001CFB150&gt;</div></td></tr><tr><td style="font-weight:bold;vertical-align:top;">wsgi_file_wrapper</td><td style="vertical-align:top;">:</td><td><div>&lt;class wsgiref.util.FileWrapper at 0x0000000003544768&gt;</div></td></tr><tr><td style="font-weight:bold;vertical-align:top;">wsgi_input</td><td style="vertical-align:top;">:</td><td><div>&lt;socket._fileobject object at 0x0000000003D5F570&gt;</div></td></tr><tr><td style="font-weight:bold;vertical-align:top;">wsgi_multiprocess</td><td style="vertical-align:top;">:</td><td><div>False</div></td></tr><tr><td style="font-weight:bold;vertical-align:top;">wsgi_multithread</td><td style="vertical-align:top;">:</td><td><div>True</div></td></tr><tr><td style="font-weight:bold;vertical-align:top;">wsgi_run_once</td><td style="vertical-align:top;">:</td><td><div>False</div></td></tr><tr><td style="font-weight:bold;vertical-align:top;">wsgi_url_scheme</td><td style="vertical-align:top;">:</td><td><div>http</div></td></tr><tr><td style="font-weight:bold;vertical-align:top;">wsgi_version</td><td style="vertical-align:top;">:</td><td><div><table><tr><td><div>1</div></td></tr><tr><td><div>0</div></td></tr></table></div></td></tr></table></div></td></tr><tr><td style="font-weight:bold;vertical-align:top;">extension</td><td style="vertical-align:top;">:</td><td><div>html</div></td></tr><tr><td style="font-weight:bold;vertical-align:top;">folder</td><td style="vertical-align:top;">:</td><td><div>C:\\Users\\joserra\\Desktop\\comunicaciones\\web2py\\applications\\welcome2\\</div></td></tr><tr><td style="font-weight:bold;vertical-align:top;">function</td><td style="vertical-align:top;">:</td><td><div>index</div></td></tr><tr><td style="font-weight:bold;vertical-align:top;">global_settings</td><td style="vertical-align:top;">:</td><td><div><table><tr><td style="font-weight:bold;vertical-align:top;">app_folders</td><td style="vertical-align:top;">:</td><td><div>set([&#x27;C:\\\\Users\\\\joserra\\\\Desktop\\\\comunicaciones\\\\web2py\\\\applications\\\\welcome2\\\\&#x27;, &#x27;C:\\\\Users\\\\joserra\\\\Desktop\\\\comunicaciones\\\\web2py\\\\applications\\\\welcome\\\\&#x27;])</div></td></tr><tr><td style="font-weight:bold;vertical-align:top;">applications_parent</td><td style="vertical-align:top;">:</td><td><div>C:\\Users\\joserra\\Desktop\\comunicaciones\\web2py</div></td></tr><tr><td style="font-weight:bold;vertical-align:top;">cmd_args</td><td style="vertical-align:top;">:</td><td><div><table></table></div></td></tr><tr><td style="font-weight:bold;vertical-align:top;">cmd_options</td><td style="vertical-align:top;">:</td><td><div>&lt;Values at 0x3a28a88: {&#x27;verbose&#x27;: False, &#x27;ip&#x27;: &#x27;127.0.0.1&#x27;, &#x27;debuglevel&#x27;: 30, &#x27;with_scheduler&#x27;: False, &#x27;ips&#x27;: [&#x27;172.23.122.154&#x27;, &#x27;fe80::ccb4:602a:9831:6b3a%12&#x27;, &#x27;fe80::242e:c79c:8482:e458%21&#x27;, &#x27;192.168.56.1&#x27;], &#x27;shutdown_timeout&#x27;: 5, &#x27;taskbar&#x27;: False, &#x27;with_coverage&#x27;: False, &#x27;scheduler_groups&#x27;: None, &#x27;port&#x27;: 8000, &#x27;maxthreads&#x27;: None, &#x27;softcron&#x27;: False, &#x27;server_name&#x27;: &#x27;Joserra&#x27;, &#x27;bpython&#x27;: False, &#x27;nogui&#x27;: False, &#x27;pid_filename&#x27;: &#x27;httpserver.pid&#x27;, &#x27;extcron&#x27;: False, &#x27;runcron&#x27;: False, &#x27;run_system_tests&#x27;: False, &#x27;test&#x27;: None, &#x27;folder&#x27;: &#x27;C:\\\\Users\\\\joserra\\\\Desktop\\\\comunicaciones\\\\web2py&#x27;, &#x27;config&#x27;: &#x27;&#x27;, &#x27;minthreads&#x27;: None, &#x27;shell&#x27;: None, &#x27;run&#x27;: &#x27;&#x27;, &#x27;log_filename&#x27;: &#x27;httpserver.log&#x27;, &#x27;profiler_dir&#x27;: None, &#x27;args&#x27;: [&#x27;&#x27;], &#x27;socket_timeout&#x27;: 5, &#x27;ssl_ca_certificate&#x27;: None, &#x27;scheduler&#x27;: None, &#x27;interfaces&#x27;: None, &#x27;ssl_private_key&#x27;: &#x27;&#x27;, &#x27;gae&#x27;: None, &#x27;password&#x27;: &#x27;&lt;ask&gt;&#x27;, &#x27;request_queue_size&#x27;: 5, &#x27;ssl_certificate&#x27;: &#x27;&#x27;, &#x27;cronjob&#x27;: False, &#x27;numthreads&#x27;: None, &#x27;quiet&#x27;: False, &#x27;import_models&#x27;: False, &#x27;timeout&#x27;: 10, &#x27;plain&#x27;: False, &#x27;nobanner&#x27;: False}&gt;</div></td></tr><tr><td style="font-weight:bold;vertical-align:top;">db_sessions</td><td style="vertical-align:top;">:</td><td><div>set([])</div></td></tr><tr><td style="font-weight:bold;vertical-align:top;">debugging</td><td style="vertical-align:top;">:</td><td><div>False</div></td></tr><tr><td style="font-weight:bold;vertical-align:top;">gluon_parent</td><td style="vertical-align:top;">:</td><td><div>C:\\Users\\joserra\\Desktop\\comunicaciones\\web2py</div></td></tr><tr><td style="font-weight:bold;vertical-align:top;">is_jython</td><td style="vertical-align:top;">:</td><td><div>False</div></td></tr><tr><td style="font-weight:bold;vertical-align:top;">is_pypy</td><td style="vertical-align:top;">:</td><td><div>False</div></td></tr><tr><td style="font-weight:bold;vertical-align:top;">is_source</td><td style="vertical-align:top;">:</td><td><div>True</div></td></tr><tr><td style="font-weight:bold;vertical-align:top;">local_hosts</td><td style="vertical-align:top;">:</td><td><div><table><tr><td><div>Joserra</div></td></tr><tr><td><div>fe80::242e:c79c:8482:e458%21</div></td></tr><tr><td><div>::ffff:127.0.0.1</div></td></tr><tr><td><div>::1</div></td></tr><tr><td><div>fe80::ccb4:602a:9831:6b3a%12</div></td></tr><tr><td><div>172.23.122.154</div></td></tr><tr><td><div>127.0.0.1</div></td></tr><tr><td><div>192.168.56.1</div></td></tr></table></div></td></tr><tr><td style="font-weight:bold;vertical-align:top;">web2py_version</td><td style="vertical-align:top;">:</td><td><div>2.9.11-stable+timestamp.2014.09.15.23.35.11</div></td></tr></table></div></td></tr><tr><td style="font-weight:bold;vertical-align:top;">is_https</td><td style="vertical-align:top;">:</td><td><div>False</div></td></tr><tr><td style="font-weight:bold;vertical-align:top;">is_local</td><td style="vertical-align:top;">:</td><td><div>True</div></td></tr><tr><td style="font-weight:bold;vertical-align:top;">is_restful</td><td style="vertical-align:top;">:</td><td><div>False</div></td></tr><tr><td style="font-weight:bold;vertical-align:top;">is_sheduler</td><td style="vertical-align:top;">:</td><td><div>None</div></td></tr><tr><td style="font-weight:bold;vertical-align:top;">is_shell</td><td style="vertical-align:top;">:</td><td><div>None</div></td></tr><tr><td style="font-weight:bold;vertical-align:top;">now</td><td style="vertical-align:top;">:</td><td><div>datetime.datetime(2014, 10, 29, 12, 52, 5, 477000)</div></td></tr><tr><td style="font-weight:bold;vertical-align:top;">raw_args</td><td style="vertical-align:top;">:</td><td><div></div></td></tr><tr><td style="font-weight:bold;vertical-align:top;">raw_extension</td><td style="vertical-align:top;">:</td><td><div>None</div></td></tr><tr><td style="font-weight:bold;vertical-align:top;">url</td><td style="vertical-align:top;">:</td><td><div>/welcome2/default/index</div></td></tr><tr><td style="font-weight:bold;vertical-align:top;">utcnow</td><td style="vertical-align:top;">:</td><td><div>datetime.datetime(2014, 10, 29, 11, 52, 5, 477000)</div></td></tr><tr><td style="font-weight:bold;vertical-align:top;">uuid</td><td style="vertical-align:top;">:</td><td><div>welcome2/127.0.0.1.2014-10-29.12-52-05.966497a6-54aa-4c07-ae6d-7f2b363b368c</div></td></tr><tr><td style="font-weight:bold;vertical-align:top;">wsgi</td><td style="vertical-align:top;">:</td><td><div>&lt;gluon.main.LazyWSGI object at 0x0000000003A4F048&gt;</div></td></tr></table></div>'
tRp58
sS'frames'
p59
(lp60
(dp61
S'file'
p62
S'C:\\Users\\joserra\\Desktop\\comunicaciones\\web2py\\gluon\\restricted.py'
p63
sS'dump'
p64
(dp65
S'environment'
p66
S"{'A': <class 'gluon.html.A'>, 'ANY_OF': <class 'gluon.validators.ANY_OF'>, 'ASSIGNJS': <function ASSIGNJS>, 'Auth': <class 'gluon.tools.Auth'>, 'B': <class 'gluon.html.B'>, 'BEAUTIFY': <class 'gluon.html.BEAUTIFY'>, 'BODY': <class 'gluon.html.BODY'>, 'BR': <class 'gluon.html.BR'>, 'BUTTON': <class 'gluon.html.BUTTON'>, 'CAT': <class 'gluon.html.CAT'>, ...}"
p67
sS'ccode'
p68
S'<code object <module> at 00000000045A5230, file ...ations\\welcome2\\controllers/default.py", line 11>'
p69
ssS'lnum'
p70
I224
sS'lines'
p71
(dp72
I224
S'        exec ccode in environment'
p73
sI225
S'    except HTTP:'
p74
sI226
S'        raise'
p75
sI227
S'    except RestrictedError:'
p76
sI228
S'        # do not encapsulate (obfuscate) the original RestrictedError'
p77
sI219
S'    try:'
p78
sI220
S'        if isinstance(code, types.CodeType):'
p79
sI221
S'            ccode = code'
p80
sI222
S'        else:'
p81
sI223
S'            ccode = compile2(code, layer)'
p82
ssS'call'
p83
S"(code='# -*- coding: utf-8 -*-\\n# this file is released ...e,rules)\\n\\nresponse._vars=response._caller(index)\\n', environment={'A': <class 'gluon.html.A'>, 'ANY_OF': <class 'gluon.validators.ANY_OF'>, 'ASSIGNJS': <function ASSIGNJS>, 'Auth': <class 'gluon.tools.Auth'>, 'B': <class 'gluon.html.B'>, 'BEAUTIFY': <class 'gluon.html.BEAUTIFY'>, 'BODY': <class 'gluon.html.BODY'>, 'BR': <class 'gluon.html.BR'>, 'BUTTON': <class 'gluon.html.BUTTON'>, 'CAT': <class 'gluon.html.CAT'>, ...}, layer=r'C:\\Users\\joserra\\Desktop\\comunicaciones\\web2py\\applications\\welcome2\\controllers/default.py')"
p84
sS'func'
p85
S'restricted'
p86
sa(dp87
g62
S'C:\\Users\\joserra\\Desktop\\comunicaciones\\web2py\\applications\\welcome2\\controllers\\default.py'
p88
sg64
(dp89
S'puerto_Serie'
p90
S'undefined'
p91
ssg70
I14
sg71
(dp92
I9
S'## - api is an example of Hypermedia API support and access control'
p93
sI10
S'#########################################################################'
p94
sI11
S'import serial'
p95
sI12
S'import time'
p96
sI13
S'recibido=""'
p97
sI14
S'recibido=puerto_Serie.readline()'
p98
sI15
S"puerto_Serie=serial.Serial('COM7', 9600)"
p99
sI16
S'puerto_Serie.close()'
p100
sI17
S'puerto_Serie.open()'
p101
sI18
S'def index():'
p102
ssg83
S'()'
p103
sg85
S'<module>'
p104
sasS'pyver'
p105
S'Python 2.7.8: C:\\Python27\\python.exe (prefix: C:\\Python27)'
p106
sS'session'
p107
g57
(S's\x1a\x00\x00\x00<div><table></table></div>'
tRp108
sS'etype'
p109
S"<type 'exceptions.NameError'>"
p110
sS'date'
p111
S'Wed Oct 29 12:52:05 2014'
p112
sS'response'
p113
g57
(S's\x961\x00\x00<div><table><tr><td style="font-weight:bold;vertical-align:top;">body</td><td style="vertical-align:top;">:</td><td><div>&lt;cStringIO.StringO object at 0x00000000044A15E0&gt;</div></td></tr><tr><td style="font-weight:bold;vertical-align:top;">cookies</td><td style="vertical-align:top;">:</td><td><div><table><tr><td style="font-weight:bold;vertical-align:top;">session_id_welcome2</td><td style="vertical-align:top;">:</td><td><div>127.0.0.1-87b0d64c-8060-478b-ae72-ffce273242b5<table><tr><td style="font-weight:bold;vertical-align:top;">comment</td><td style="vertical-align:top;">:</td><td><div></div></td></tr><tr><td style="font-weight:bold;vertical-align:top;">domain</td><td style="vertical-align:top;">:</td><td><div></div></td></tr><tr><td style="font-weight:bold;vertical-align:top;">expires</td><td style="vertical-align:top;">:</td><td><div></div></td></tr><tr><td style="font-weight:bold;vertical-align:top;">httponly</td><td style="vertical-align:top;">:</td><td><div></div></td></tr><tr><td style="font-weight:bold;vertical-align:top;">max-age</td><td style="vertical-align:top;">:</td><td><div></div></td></tr><tr><td style="font-weight:bold;vertical-align:top;">path</td><td style="vertical-align:top;">:</td><td><div>/</div></td></tr><tr><td style="font-weight:bold;vertical-align:top;">secure</td><td style="vertical-align:top;">:</td><td><div></div></td></tr><tr><td style="font-weight:bold;vertical-align:top;">version</td><td style="vertical-align:top;">:</td><td><div></div></td></tr></table></div></td></tr></table></div></td></tr><tr><td style="font-weight:bold;vertical-align:top;">delimiters</td><td style="vertical-align:top;">:</td><td><div><table><tr><td><div>{{</div></td></tr><tr><td><div>}}</div></td></tr></table></div></td></tr><tr><td style="font-weight:bold;vertical-align:top;">files</td><td style="vertical-align:top;">:</td><td><div><table></table></div></td></tr><tr><td style="font-weight:bold;vertical-align:top;">flash</td><td style="vertical-align:top;">:</td><td><div></div></td></tr><tr><td style="font-weight:bold;vertical-align:top;">form_label_separator</td><td style="vertical-align:top;">:</td><td><div>: </div></td></tr><tr><td style="font-weight:bold;vertical-align:top;">formstyle</td><td style="vertical-align:top;">:</td><td><div>table3cols</div></td></tr><tr><td style="font-weight:bold;vertical-align:top;">generic_patterns</td><td style="vertical-align:top;">:</td><td><div><table><tr><td><div>*</div></td></tr></table></div></td></tr><tr><td style="font-weight:bold;vertical-align:top;">google_analytics_id</td><td style="vertical-align:top;">:</td><td><div>None</div></td></tr><tr><td style="font-weight:bold;vertical-align:top;">headers</td><td style="vertical-align:top;">:</td><td><div><table><tr><td style="font-weight:bold;vertical-align:top;">X-Powered-By</td><td style="vertical-align:top;">:</td><td><div>web2py</div></td></tr></table></div></td></tr><tr><td style="font-weight:bold;vertical-align:top;">logo</td><td style="vertical-align:top;">:</td><td><div><a class="brand" href="http://www.web2py.com/"><b>web<span>2</span>py</b>&trade;&nbsp;</a></div></td></tr><tr><td style="font-weight:bold;vertical-align:top;">menu</td><td style="vertical-align:top;">:</td><td><div><table><tr><td><div><table><tr><td><div>Inicio</div></td></tr><tr><td><div>False</div></td></tr><tr><td><div>/welcome2/default/index</div></td></tr><tr><td><div><table></table></div></td></tr></table></div></td></tr><tr><td><div><table><tr><td><div><span class="highlighted">web2py</span></div></td></tr><tr><td><div>False</div></td></tr><tr><td><div>http://web2py.com</div></td></tr><tr><td><div><table><tr><td><div><table><tr><td><div>Mis Sitios</div></td></tr><tr><td><div>False</div></td></tr><tr><td><div>/admin/default/site</div></td></tr></table></div></td></tr><tr><td><div><table><tr><td><div>Esta Aplicaci\xc3\xb3n</div></td></tr><tr><td><div>False</div></td></tr><tr><td><div>/admin/default/design/welcome2</div></td></tr><tr><td><div>[(&lt;lazyT &#x27;Controller&#x27;&gt;, False, &#x27;/admin/default/edit/welcome2/controllers/default.py&#x27;), (&lt;lazyT &#x27;View&#x27;&gt;, False, &#x27;/admin/default/edit/welcome2/views/default/index.html&#x27;), (&lt;lazyT &#x27;Layout&#x27;&gt;, False, &#x27;/admin/default/edit/welcome2/views/layout.html&#x27;), (&lt;lazyT &#x27;Stylesheet&#x27;&gt;, False, &#x27;/admin/default/edit/welcome2/static/css/web2py.css&#x27;), (&lt;lazyT &#x27;DB Model&#x27;&gt;, False, &#x27;/admin/default/edit/welcome2/models/db.py&#x27;), (&lt;lazyT &#x27;Menu Model&#x27;&gt;, False, &#x27;/admin/default/edit/welcome2/models/menu.py&#x27;), (&lt;lazyT &#x27;Database&#x27;&gt;, False, &#x27;/welcome2/appadmin/index&#x27;), (&lt;lazyT &#x27;Errors&#x27;&gt;, False, &#x27;/admin/default/errors/welcome2&#x27;), (&lt;lazyT &#x27;About&#x27;&gt;, False, &#x27;/admin/default/about/welcome2&#x27;)]</div></td></tr></table></div></td></tr><tr><td><div><table><tr><td><div>web2py.com</div></td></tr><tr><td><div>False</div></td></tr><tr><td><div>http://www.web2py.com</div></td></tr><tr><td><div>[(&lt;lazyT &#x27;Download&#x27;&gt;, False, &#x27;http://www.web2py.com/examples/default/download&#x27;), (&lt;lazyT &#x27;Support&#x27;&gt;, False, &#x27;http://www.web2py.com/examples/default/support&#x27;), (&lt;lazyT &#x27;Demo&#x27;&gt;, False, &#x27;http://web2py.com/demo_admin&#x27;), (&lt;lazyT &#x27;Quick Examples&#x27;&gt;, False, &#x27;http://web2py.com/examples/default/examples&#x27;), (&lt;lazyT &#x27;FAQ&#x27;&gt;, False, &#x27;http://web2py.com/AlterEgo&#x27;), (&lt;lazyT &#x27;Videos&#x27;&gt;, False, &#x27;http://www.web2py.com/examples/default/videos/&#x27;), (&lt;lazyT &#x27;Free Applications&#x27;&gt;, False, &#x27;http://web2py.com/appliances&#x27;), (&lt;lazyT &#x27;Plugins&#x27;&gt;, False, &#x27;http://web2py.com/plugins&#x27;), (&lt;lazyT &#x27;Layouts&#x27;&gt;, False, &#x27;http://web2py.com/layouts&#x27;), (&lt;lazyT &#x27;Recipes&#x27;&gt;, False, &#x27;http://web2pyslices.com/&#x27;), (&lt;lazyT &#x27;Semantic&#x27;&gt;, False, &#x27;http://web2py.com/semantic&#x27;)]</div></td></tr></table></div></td></tr><tr><td><div><table><tr><td><div>Documentaci\xc3\xb3n</div></td></tr><tr><td><div>False</div></td></tr><tr><td><div>http://www.web2py.com/book</div></td></tr><tr><td><div>[(&lt;lazyT &#x27;Preface&#x27;&gt;, False, &#x27;http://www.web2py.com/book/default/chapter/00&#x27;), (&lt;lazyT &#x27;Introduction&#x27;&gt;, False, &#x27;http://www.web2py.com/book/default/chapter/01&#x27;), (&lt;lazyT &#x27;Python&#x27;&gt;, False, &#x27;http://www.web2py.com/book/default/chapter/02&#x27;), (&lt;lazyT &#x27;Overview&#x27;&gt;, False, &#x27;http://www.web2py.com/book/default/chapter/03&#x27;), (&lt;lazyT &#x27;The Core&#x27;&gt;, False, &#x27;http://www.web2py.com/book/default/chapter/04&#x27;), (&lt;lazyT &#x27;The Views&#x27;&gt;, False, &#x27;http://www.web2py.com/book/default/chapter/05&#x27;), (&lt;lazyT &#x27;Database&#x27;&gt;, False, &#x27;http://www.web2py.com/book/default/chapter/06&#x27;), (&lt;lazyT &#x27;Forms and Validators&#x27;&gt;, False, &#x27;http://www.web2py.com/book/default/chapter/07&#x27;), (&lt;lazyT &#x27;Email and SMS&#x27;&gt;, False, &#x27;http://www.web2py.com/book/default/chapter/08&#x27;), (&lt;lazyT &#x27;Access Control&#x27;&gt;, False, &#x27;http://www.web2py.com/book/default/chapter/09&#x27;), (&lt;lazyT &#x27;Services&#x27;&gt;, False, &#x27;http://www.web2py.com/book/default/chapter/10&#x27;), (&lt;lazyT &#x27;Ajax Recipes&#x27;&gt;, False, &#x27;http://www.web2py.com/book/default/chapter/11&#x27;), (&lt;lazyT &#x27;Components and Plugins&#x27;&gt;, False, &#x27;http://www.web2py.com/book/default/chapter/12&#x27;), (&lt;lazyT &#x27;Deployment Recipes&#x27;&gt;, False, &#x27;http://www.web2py.com/book/default/chapter/13&#x27;), (&lt;lazyT &#x27;Other Recipes&#x27;&gt;, False, &#x27;http://www.web2py.com/book/default/chapter/14&#x27;), (&lt;lazyT &#x27;Buy this book&#x27;&gt;, False, &#x27;http://stores.lulu.com/web2py&#x27;)]</div></td></tr></table></div></td></tr><tr><td><div><table><tr><td><div>Comunidad</div></td></tr><tr><td><div>False</div></td></tr><tr><td><div>None</div></td></tr><tr><td><div>[(&lt;lazyT &#x27;Groups&#x27;&gt;, False, &#x27;http://www.web2py.com/examples/default/usergroups&#x27;), (&lt;lazyT &#x27;Twitter&#x27;&gt;, False, &#x27;http://twitter.com/web2py&#x27;), (&lt;lazyT &#x27;Live Chat&#x27;&gt;, False, &#x27;http://webchat.freenode.net/?channels=web2py&#x27;)]</div></td></tr></table></div></td></tr><tr><td><div><table><tr><td><div>Plugins</div></td></tr><tr><td><div>False</div></td></tr><tr><td><div>None</div></td></tr><tr><td><div>[(&#x27;plugin_wiki&#x27;, False, &#x27;http://web2py.com/examples/default/download&#x27;), (&lt;lazyT &#x27;Other Plugins&#x27;&gt;, False, &#x27;http://web2py.com/plugins&#x27;), (&lt;lazyT &#x27;Layout Plugins&#x27;&gt;, False, &#x27;http://web2py.com/layouts&#x27;)]</div></td></tr></table></div></td></tr></table></div></td></tr></table></div></td></tr></table></div></td></tr><tr><td style="font-weight:bold;vertical-align:top;">meta</td><td style="vertical-align:top;">:</td><td><div><table><tr><td style="font-weight:bold;vertical-align:top;">author</td><td style="vertical-align:top;">:</td><td><div>Your Name &lt;you@example.com&gt;</div></td></tr><tr><td style="font-weight:bold;vertical-align:top;">generator</td><td style="vertical-align:top;">:</td><td><div>Web2py Web Framework</div></td></tr><tr><td style="font-weight:bold;vertical-align:top;">keywords</td><td style="vertical-align:top;">:</td><td><div>web2py, python, framework</div></td></tr></table></div></td></tr><tr><td style="font-weight:bold;vertical-align:top;">models_to_run</td><td style="vertical-align:top;">:</td><td><div><table><tr><td><div>^\\w+\\.py$</div></td></tr><tr><td><div>^default/\\w+\\.py$</div></td></tr><tr><td><div>^default/index/\\w+\\.py$</div></td></tr></table></div></td></tr><tr><td style="font-weight:bold;vertical-align:top;">postprocessing</td><td style="vertical-align:top;">:</td><td><div><table></table></div></td></tr><tr><td style="font-weight:bold;vertical-align:top;">session_client</td><td style="vertical-align:top;">:</td><td><div>127.0.0.1</div></td></tr><tr><td style="font-weight:bold;vertical-align:top;">session_cookie_compression_level</td><td style="vertical-align:top;">:</td><td><div>None</div></td></tr><tr><td style="font-weight:bold;vertical-align:top;">session_cookie_expires</td><td style="vertical-align:top;">:</td><td><div>None</div></td></tr><tr><td style="font-weight:bold;vertical-align:top;">session_cookie_key</td><td style="vertical-align:top;">:</td><td><div>None</div></td></tr><tr><td style="font-weight:bold;vertical-align:top;">session_data_name</td><td style="vertical-align:top;">:</td><td><div>session_data_welcome2</div></td></tr><tr><td style="font-weight:bold;vertical-align:top;">session_file</td><td style="vertical-align:top;">:</td><td><div>None</div></td></tr><tr><td style="font-weight:bold;vertical-align:top;">session_filename</td><td style="vertical-align:top;">:</td><td><div>C:\\Users\\joserra\\Desktop\\comunicaciones\\web2py\\applications\\welcome2\\sessions\\127.0.0.1-87b0d64c-8060-478b-ae72-ffce273242b5</div></td></tr><tr><td style="font-weight:bold;vertical-align:top;">session_hash</td><td style="vertical-align:top;">:</td><td><div>c0762cbf4baf7f9af97c051e7fcb8083</div></td></tr><tr><td style="font-weight:bold;vertical-align:top;">session_id</td><td style="vertical-align:top;">:</td><td><div>127.0.0.1-87b0d64c-8060-478b-ae72-ffce273242b5</div></td></tr><tr><td style="font-weight:bold;vertical-align:top;">session_id_name</td><td style="vertical-align:top;">:</td><td><div>session_id_welcome2</div></td></tr><tr><td style="font-weight:bold;vertical-align:top;">session_masterapp</td><td style="vertical-align:top;">:</td><td><div>welcome2</div></td></tr><tr><td style="font-weight:bold;vertical-align:top;">session_new</td><td style="vertical-align:top;">:</td><td><div>True</div></td></tr><tr><td style="font-weight:bold;vertical-align:top;">session_storage_type</td><td style="vertical-align:top;">:</td><td><div>file</div></td></tr><tr><td style="font-weight:bold;vertical-align:top;">status</td><td style="vertical-align:top;">:</td><td><div>200</div></td></tr><tr><td style="font-weight:bold;vertical-align:top;">subtitle</td><td style="vertical-align:top;">:</td><td><div></div></td></tr><tr><td style="font-weight:bold;vertical-align:top;">title</td><td style="vertical-align:top;">:</td><td><div>Welcome2</div></td></tr><tr><td style="font-weight:bold;vertical-align:top;">view</td><td style="vertical-align:top;">:</td><td><div>default/index.html</div></td></tr></table></div>'
tRp114
sS'locals'
p115
(dp116
S'Service'
p117
S"<class 'gluon.tools.Service'>"
p118
sS'OBJECT'
p119
S"<class 'gluon.html.OBJECT'>"
p120
sS'SQLDB'
p121
S"<class 'gluon.dal.DAL'>"
p122
sg107
S'<Storage {}>'
p123
sS'LINK'
p124
S"<class 'gluon.html.LINK'>"
p125
sS'BR'
p126
S"<class 'gluon.html.BR'>"
p127
sS'local_import'
p128
S'<function <lambda>>'
p129
sS'OPTGROUP'
p130
S"<class 'gluon.html.OPTGROUP'>"
p131
sS'LI'
p132
S"<class 'gluon.html.LI'>"
p133
sS'PRE'
p134
S"<class 'gluon.html.PRE'>"
p135
sS'IS_INT_IN_RANGE'
p136
S"<class 'gluon.validators.IS_INT_IN_RANGE'>"
p137
sS'IS_LOWER'
p138
S"<class 'gluon.validators.IS_LOWER'>"
p139
sS'IS_STRONG'
p140
S"<class 'gluon.validators.IS_STRONG'>"
p141
sS'cache'
p142
S'<gluon.cache.Cache object>'
p143
sS'IS_IN_DB'
p144
S"<class 'gluon.validators.IS_IN_DB'>"
p145
sS'TAG'
p146
S'<gluon.html.__TAG__ object>'
p147
sS'SQLField'
p148
S"<class 'gluon.dal.Field'>"
p149
sS'mail'
p150
S'<gluon.tools.Mail object>'
p151
sS'BODY'
p152
S"<class 'gluon.html.BODY'>"
p153
sS'IS_DATE_IN_RANGE'
p154
S"<class 'gluon.validators.IS_DATE_IN_RANGE'>"
p155
sS'TH'
p156
S"<class 'gluon.html.TH'>"
p157
sS'URL'
p158
S'<function URL>'
p159
sS'__file__'
p160
S"r'C:\\Users\\joserra\\Desktop\\comunicaciones\\web2py\\applications\\welcome2\\controllers/default.py'"
p161
sS'db'
p162
S'<DAL uri="sqlite://storage.sqlite">'
p163
sS'auth'
p164
S'<gluon.tools.Auth object>'
p165
sS'P'
S"<class 'gluon.html.P'>"
p166
sS'TFOOT'
p167
S"<class 'gluon.html.TFOOT'>"
p168
sS'XHTML'
p169
S"<class 'gluon.html.XHTML'>"
p170
sS'ON'
p171
S'True'
p172
sS'OL'
p173
S"<class 'gluon.html.OL'>"
p174
sS'TEXTAREA'
p175
S"<class 'gluon.html.TEXTAREA'>"
p176
sS'MENU'
p177
S"<class 'gluon.html.MENU'>"
p178
sS'LOAD'
p179
S'<function LOAD>'
p180
sS'CODE'
p181
S"<class 'gluon.html.CODE'>"
p182
sS'HTTP'
p183
S"<class 'gluon.http.HTTP'>"
p184
sS'HR'
p185
S"<class 'gluon.html.HR'>"
p186
sS'IS_DATETIME'
p187
S"<class 'gluon.validators.IS_DATETIME'>"
p188
sS'HEAD'
p189
S"<class 'gluon.html.HEAD'>"
p190
sS'LABEL'
p191
S"<class 'gluon.html.LABEL'>"
p192
sS'CLEANUP'
p193
S"<class 'gluon.validators.CLEANUP'>"
p194
sS'plugins'
p195
S'<gluon.tools.PluginManager object>'
p196
sS'SELECT'
p197
S"<class 'gluon.html.SELECT'>"
p198
sS'use_janrain'
p199
S'<function use_janrain>'
p200
sS'CENTER'
p201
S"<class 'gluon.html.CENTER'>"
p202
sS'Auth'
p203
S"<class 'gluon.tools.Auth'>"
p204
sS'DEVELOPMENT_MENU'
p205
g172
sS'__builtins__'
p206
S"{'ArithmeticError': <type 'exceptions.ArithmeticError'>, 'AssertionError': <type 'exceptions.AssertionError'>, 'AttributeError': <type 'exceptions.AttributeError'>, 'BaseException': <type 'exceptions.BaseException'>, 'BufferError': <type 'exceptions.BufferError'>, 'BytesWarning': <type 'exceptions.BytesWarning'>, 'DeprecationWarning': <type 'exceptions.DeprecationWarning'>, 'EOFError': <type 'exceptions.EOFError'>, 'Ellipsis': Ellipsis, 'EnvironmentError': <type 'exceptions.EnvironmentError'>, ...}"
p207
sS'HTML'
p208
S"<class 'gluon.html.HTML'>"
p209
sS'SQLFORM'
p210
S"<class 'gluon.sqlhtml.SQLFORM'>"
p211
sS'EM'
p212
S"<class 'gluon.html.EM'>"
p213
sS'redirect'
p214
S'<function redirect>'
p215
sS'FIELDSET'
p216
S"<class 'gluon.html.FIELDSET'>"
p217
sS'IS_EQUAL_TO'
p218
S"<class 'gluon.validators.IS_EQUAL_TO'>"
p219
sS'embed64'
p220
S'<function embed64>'
p221
sS'IS_LIST_OF'
p222
S"<class 'gluon.validators.IS_LIST_OF'>"
p223
sS'__name__'
p224
S"'__restricted__'"
p225
sS'EMBED'
p226
S"<class 'gluon.html.EMBED'>"
p227
sS'_'
S'<function _>'
p228
sS'FORM'
p229
S"<class 'gluon.html.FORM'>"
p230
sS'H2'
p231
S"<class 'gluon.html.H2'>"
p232
sS'H3'
p233
S"<class 'gluon.html.H3'>"
p234
sS'BUTTON'
p235
S"<class 'gluon.html.BUTTON'>"
p236
sS'H1'
p237
S"<class 'gluon.html.H1'>"
p238
sS'H6'
p239
S"<class 'gluon.html.H6'>"
p240
sS'H4'
p241
S"<class 'gluon.html.H4'>"
p242
sS'H5'
p243
S"<class 'gluon.html.H5'>"
p244
sS'UL'
p245
S"<class 'gluon.html.UL'>"
p246
sS'IS_UPPER'
p247
S"<class 'gluon.validators.IS_UPPER'>"
p248
sS'xmlescape'
p249
S'<function xmlescape>'
p250
sS'IS_TIME'
p251
S"<class 'gluon.validators.IS_TIME'>"
p252
sS'OPTION'
p253
S"<class 'gluon.html.OPTION'>"
p254
sS'TITLE'
p255
S"<class 'gluon.html.TITLE'>"
p256
sS'CRYPT'
p257
S"<class 'gluon.validators.CRYPT'>"
p258
sS'IS_EMPTY_OR'
p259
S"<class 'gluon.validators.IS_EMPTY_OR'>"
p260
sS'MARKMIN'
p261
S"<class 'gluon.html.MARKMIN'>"
p262
sS'INPUT'
p263
S"<class 'gluon.html.INPUT'>"
p264
sS'STRONG'
p265
S"<class 'gluon.html.STRONG'>"
p266
sS'COL'
p267
S"<class 'gluon.html.COL'>"
p268
sS'service'
p269
S'<gluon.tools.Service object>'
p270
sS'SCRIPT'
p271
S"<class 'gluon.html.SCRIPT'>"
p272
sS'TABLE'
p273
S"<class 'gluon.html.TABLE'>"
p274
sS'IS_IPV4'
p275
S"<class 'gluon.validators.IS_IPV4'>"
p276
sS'IS_LENGTH'
p277
S"<class 'gluon.validators.IS_LENGTH'>"
p278
sS'IS_IPV6'
p279
S"<class 'gluon.validators.IS_IPV6'>"
p280
sS'XML'
p281
S"<class 'gluon.html.XML'>"
p282
sS'B'
S"<class 'gluon.html.B'>"
p283
sS'IMG'
p284
S"<class 'gluon.html.IMG'>"
p285
sS'SQLTABLE'
p286
S"<class 'gluon.sqlhtml.SQLTABLE'>"
p287
sS'IS_MATCH'
p288
S"<class 'gluon.validators.IS_MATCH'>"
p289
sS'IS_ALPHANUMERIC'
p290
S"<class 'gluon.validators.IS_ALPHANUMERIC'>"
p291
sS'SPAN'
p292
S"<class 'gluon.html.SPAN'>"
p293
sS'IS_JSON'
p294
S"<class 'gluon.validators.IS_JSON'>"
p295
sS'IS_IPADDRESS'
p296
S"<class 'gluon.validators.IS_IPADDRESS'>"
p297
sS'IS_SLUG'
p298
S"<class 'gluon.validators.IS_SLUG'>"
p299
sS'BEAUTIFY'
p300
S"<class 'gluon.html.BEAUTIFY'>"
p301
sS'META'
p302
S"<class 'gluon.html.META'>"
p303
sS'IS_DATE'
p304
S"<class 'gluon.validators.IS_DATE'>"
p305
sS'IS_EMAIL'
p306
S"<class 'gluon.validators.IS_EMAIL'>"
p307
sS'IS_NOT_EMPTY'
p308
S"<class 'gluon.validators.IS_NOT_EMPTY'>"
p309
sS'IS_FLOAT_IN_RANGE'
p310
S"<class 'gluon.validators.IS_FLOAT_IN_RANGE'>"
p311
sS'TBODY'
p312
S"<class 'gluon.html.TBODY'>"
p313
sS'CAT'
p314
S"<class 'gluon.html.CAT'>"
p315
sS'Field'
p316
S"<class 'gluon.dal.Field'>"
p317
sS'IS_LIST_OF_EMAILS'
p318
S"<class 'gluon.validators.IS_LIST_OF_EMAILS'>"
p319
sS'DIV'
p320
S"<class 'gluon.html.DIV'>"
p321
sS'LEGEND'
p322
S"<class 'gluon.html.LEGEND'>"
p323
sS'COLGROUP'
p324
S"<class 'gluon.html.COLGROUP'>"
p325
sS'DAL'
p326
S"<class 'gluon.dal.DAL'>"
p327
sS'ASSIGNJS'
p328
S'<function ASSIGNJS>'
p329
sS'TR'
p330
S"<class 'gluon.html.TR'>"
p331
sS'__package__'
p332
S'None'
p333
sS'IFRAME'
p334
S"<class 'gluon.html.IFRAME'>"
p335
sS'TD'
p336
S"<class 'gluon.html.TD'>"
p337
sS'PluginManager'
p338
S"<class 'gluon.tools.PluginManager'>"
p339
sS'IS_URL'
p340
S"<class 'gluon.validators.IS_URL'>"
p341
sS'A'
S"<class 'gluon.html.A'>"
p342
sS'STYLE'
p343
S"<class 'gluon.html.STYLE'>"
p344
sS'IS_DATETIME_IN_RANGE'
p345
S"<class 'gluon.validators.IS_DATETIME_IN_RANGE'>"
p346
sS'IS_IMAGE'
p347
S"<class 'gluon.validators.IS_IMAGE'>"
p348
sS'I'
S"<class 'gluon.html.I'>"
p349
sS'IS_NOT_IN_DB'
p350
S"<class 'gluon.validators.IS_NOT_IN_DB'>"
p351
sg113
S"<Storage {'body': <cStringIO.StringO object at 0...00000000046C54A8>, 'view': 'default/index.html'}>"
p352
sS'serial'
p353
S"<module 'serial' from 'C:\\Python27\\lib\\site-packages\\serial\\__init__.pyc'>"
p354
sS'THEAD'
p355
S"<class 'gluon.html.THEAD'>"
p356
sS'ANY_OF'
p357
S"<class 'gluon.validators.ANY_OF'>"
p358
sS'IS_NULL_OR'
p359
S"<class 'gluon.validators.IS_EMPTY_OR'>"
p360
sS'recibido'
p361
S"''"
p362
sg56
S"<Storage {'_vars': None, 'function': 'index', 'c...municaciones\\\\web2py\\\\applications\\\\welcome2\\\\'}>"
p363
sS'IS_EXPR'
p364
S"<class 'gluon.validators.IS_EXPR'>"
p365
sS'IS_IN_SET'
p366
S"<class 'gluon.validators.IS_IN_SET'>"
p367
sS'IS_UPLOAD_FILENAME'
p368
S"<class 'gluon.validators.IS_UPLOAD_FILENAME'>"
p369
sS'time'
p370
S"<module 'time' (built-in)>"
p371
sS'IS_DECIMAL_IN_RANGE'
p372
S"<class 'gluon.validators.IS_DECIMAL_IN_RANGE'>"
p373
sS'TT'
p374
S"<class 'gluon.html.TT'>"
p375
sS'T'
S'<gluon.languages.translator object>'
p376
sssS'traceback'
p377
S'Traceback (most recent call last):\n  File "C:\\Users\\joserra\\Desktop\\comunicaciones\\web2py\\gluon\\restricted.py", line 224, in restricted\n    exec ccode in environment\n  File "C:\\Users\\joserra\\Desktop\\comunicaciones\\web2py\\applications\\welcome2\\controllers/default.py", line 14, in <module>\n    recibido=puerto_Serie.readline()\nNameError: name \'puerto_Serie\' is not defined\n'
p378
s.