(dp1
S'output'
p2
S"<class 'bdb.BdbQuit'> "
p3
sS'layer'
p4
S'/home/jose/Escritorio/web2py/applications/welcome2/controllers/default.py'
p5
sS'code'
p6
S'# -*- coding: utf-8 -*-\n# this file is released under public domain and you can use without limitations\n\n#########################################################################\n## This is a sample controller\n## - index is the default action of any application\n## - user is required for authentication and authorization\n## - download is for downloading files uploaded in the db (does streaming)\n## - api is an example of Hypermedia API support and access control\n#########################################################################\nimport serial\nimport time\npuerto_Serie=serial.Serial(\'/dev/ttyACM0\', 9600,timeout=2)\npuerto_Serie.close()\npuerto_Serie.open()\n\n\n\n\n\ndef index():\n    """\n    example action using the internationalization operator T and flash\n    rendered by views/default/index.html or views/generic.html\n\n    if you need a simple wiki simply replace the two lines below with:\n    return auth.wiki()\n    """\n    response.flash = T("Welcome to web2py!")\n    return dict(message=T(\'Hello World\'))\n    \nimport pdb\n  \ndef recibe_datos():\n\tcadena=""\n\t\n\tvalor=str(request.vars.valor)\n\t\n\tpdb.set_trace()\n\n\tif (valor==\'1\'):\n\t\t\n\t\tcadena=\'a\'\n\tif (valor==\'0\'):\n\t\t\n\t\tcadena=\'b\'\n\t\n\t\n\tpuerto_Serie.write(cadena)\n\tif puerto_Serie.inWaiting() > 0:\n\t\trecibe = puerto_Serie.readline()\n\t\trecibe_puerta=recibe\n\t\t\n\t\tresultado = {"Puerta":recibe_puerta}\n\t\n\treturn resultado\n\t#time.sleep(0.1) \n\t\n\t\n\t\n\n\ndef user():\n    """\n    exposes:\n    http://..../[app]/default/user/login\n    http://..../[app]/default/user/logout\n    http://..../[app]/default/user/register\n    http://..../[app]/default/user/profile\n    http://..../[app]/default/user/retrieve_password\n    http://..../[app]/default/user/change_password\n    http://..../[app]/default/user/manage_users (requires membership in\n    use @auth.requires_login()\n        @auth.requires_membership(\'group name\')\n        @auth.requires_permission(\'read\',\'table name\',record_id)\n    to decorate functions that need access control\n    """\n    return dict(form=auth())\n\n\n@cache.action()\ndef download():\n    """\n    allows downloading of uploaded files\n    http://..../[app]/default/download/[filename]\n    """\n    return response.download(request, db)\n\n\ndef call():\n    """\n    exposes services. for example:\n    http://..../[app]/default/call/jsonrpc\n    decorate with @services.jsonrpc the functions to expose\n    supports xml, json, xmlrpc, jsonrpc, amfrpc, rss, csv\n    """\n    return service()\n\n\n@auth.requires_login() \ndef api():\n    """\n    this is example of API with access control\n    WEB2PY provides Hypermedia API (Collection+JSON) Experimental\n    """\n    from gluon.contrib.hypermedia import Collection\n    rules = {\n        \'<tablename>\': {\'GET\':{},\'POST\':{},\'PUT\':{},\'DELETE\':{}},\n        }\n    return Collection(db).process(request,response,rules)\n\nresponse._vars=response._caller(recibe_datos)\n'
p7
sS'snapshot'
p8
(dp9
sS'traceback'
p10
S'Traceback (most recent call last):\n  File "/home/jose/Escritorio/web2py/gluon/restricted.py", line 224, in restricted\n    exec ccode in environment\n  File "/home/jose/Escritorio/web2py/applications/welcome2/controllers/default.py", line 112, in <module>\n  File "/home/jose/Escritorio/web2py/gluon/globals.py", line 392, in <lambda>\n    self._caller = lambda f: f()\n  File "/home/jose/Escritorio/web2py/applications/welcome2/controllers/default.py", line 51, in recibe_datos\n    recibe = puerto_Serie.readline()\n  File "/home/jose/Escritorio/web2py/applications/welcome2/controllers/default.py", line 51, in recibe_datos\n    recibe = puerto_Serie.readline()\n  File "/usr/lib/python2.7/bdb.py", line 49, in trace_dispatch\n    return self.dispatch_line(frame)\n  File "/usr/lib/python2.7/bdb.py", line 68, in dispatch_line\n    if self.quitting: raise BdbQuit\nBdbQuit\n'
p11
s.